target datalayout = "e-m:e-p270:32:32-p271:32:32-p272:64:64-i64:64-i128:128-f80:128-n8:16:32:64-S128"
target triple = "x86_64-pc-linux-gnu"

%"struct.std::pair.0" = type { float, float }
%"class.gmx::ArrayRef" = type { %"struct.gmx::ArrayRefIter", %"struct.gmx::ArrayRefIter" }
%"struct.gmx::ArrayRefIter" = type { ptr }

; Function Attrs: mustprogress nounwind uwtable
define linkonce_odr noundef nonnull align 8 dereferenceable(8) ptr @_ZNK3gmx12ArrayRefIterIKdEdeEv(ptr noundef nonnull align 8 dereferenceable(8) %0) #2 comdat align 2 {
  %2 = alloca ptr, align 8
  store ptr %0, ptr %2, align 8
  %3 = load ptr, ptr %2, align 8
  %4 = getelementptr inbounds %"struct.gmx::ArrayRefIter", ptr %3, i32 0, i32 0
  %5 = load ptr, ptr %4, align 8
  ret ptr %5
}

; Function Attrs: mustprogress nounwind uwtable
define linkonce_odr noundef nonnull align 8 dereferenceable(8) ptr @_ZN3gmx12ArrayRefIterIKdEpLEl(ptr noundef nonnull align 8 dereferenceable(8) %0, i64 noundef %1) #2 comdat align 2 {
  %3 = alloca ptr, align 8
  %4 = alloca i64, align 8
  store ptr %0, ptr %3, align 8
  store i64 %1, ptr %4, align 8
  %5 = load ptr, ptr %3, align 8
  %6 = load i64, ptr %4, align 8
  %7 = getelementptr inbounds %"struct.gmx::ArrayRefIter", ptr %5, i32 0, i32 0
  %8 = load ptr, ptr %7, align 8
  %9 = getelementptr inbounds double, ptr %8, i64 %6
  store ptr %9, ptr %7, align 8
  ret ptr %5
}

; Function Attrs: mustprogress nounwind uwtable
define linkonce_odr noundef nonnull align 8 dereferenceable(8) ptr @_ZNK3gmx5boost14stl_interfaces2v118iterator_interfaceINS_12ArrayRefIterIKdEESt26random_access_iterator_tagS5_RS5_PS5_lvE7derivedEv(ptr noundef nonnull align 1 dereferenceable(1) %0) #2 comdat align 2 {
  %2 = alloca ptr, align 8
  store ptr %0, ptr %2, align 8
  %3 = load ptr, ptr %2, align 8
  ret ptr %3
}

; Function Attrs: mustprogress nounwind uwtable
define linkonce_odr noundef nonnull align 8 dereferenceable(8) ptr @_ZSt3maxIdERKT_S2_S2_(ptr noundef nonnull align 8 dereferenceable(8) %0, ptr noundef nonnull align 8 dereferenceable(8) %1) #2 comdat {
  %3 = alloca ptr, align 8
  %4 = alloca ptr, align 8
  %5 = alloca ptr, align 8
  store ptr %0, ptr %4, align 8
  store ptr %1, ptr %5, align 8
  %6 = load ptr, ptr %4, align 8
  %7 = load double, ptr %6, align 8
  %8 = load ptr, ptr %5, align 8
  %9 = load double, ptr %8, align 8
  %10 = fcmp olt double %7, %9
  br i1 %10, label %11, label %13

11:                                               ; preds = %2
  %12 = load ptr, ptr %5, align 8
  store ptr %12, ptr %3, align 8
  br label %15

13:                                               ; preds = %2
  %14 = load ptr, ptr %4, align 8
  store ptr %14, ptr %3, align 8
  br label %15

15:                                               ; preds = %13, %11
  %16 = load ptr, ptr %3, align 8
  ret ptr %16
}

; Function Attrs: mustprogress nounwind uwtable
define linkonce_odr noundef double @_ZSt3absd(double noundef %0) #2 comdat {
  %2 = alloca double, align 8
  store double %0, ptr %2, align 8
  %3 = load double, ptr %2, align 8
  %4 = call double @llvm.fabs.f64(double %3)
  ret double %4
}

; Function Attrs: mustprogress nounwind uwtable
define linkonce_odr noundef float @_ZSt4sqrtf(float noundef %0) #2 comdat {
  %2 = alloca float, align 4
  store float %0, ptr %2, align 4
  %3 = load float, ptr %2, align 4
  %4 = call float @sqrtf(float noundef %3) #13
  ret float %4
}

; Function Attrs: mustprogress nounwind uwtable
define linkonce_odr noundef nonnull align 8 dereferenceable(8) ptr @_ZNK3gmx5boost14stl_interfaces2v118iterator_interfaceINS_12ArrayRefIterIKdEESt26random_access_iterator_tagS5_RS5_PS5_lvEixIS6_EEDTcmpLclsr3stdE7declvalIRT_EEfp_declsr3stdE7declvalISD_EEEl(ptr noundef nonnull align 1 dereferenceable(1) %0, i64 noundef %1) #2 comdat align 2 {
  %3 = alloca ptr, align 8
  %4 = alloca i64, align 8
  %5 = alloca %"struct.gmx::ArrayRefIter", align 8
  store ptr %0, ptr %3, align 8
  store i64 %1, ptr %4, align 8
  %6 = load ptr, ptr %3, align 8
  %7 = call noundef nonnull align 8 dereferenceable(8) ptr @_ZNK3gmx5boost14stl_interfaces2v118iterator_interfaceINS_12ArrayRefIterIKdEESt26random_access_iterator_tagS5_RS5_PS5_lvE7derivedEv(ptr noundef nonnull align 1 dereferenceable(1) %6) #13
  call void @llvm.memcpy.p0.p0.i64(ptr align 8 %5, ptr align 8 %7, i64 8, i1 false)
  %8 = load i64, ptr %4, align 8
  %9 = call noundef nonnull align 8 dereferenceable(8) ptr @_ZN3gmx12ArrayRefIterIKdEpLEl(ptr noundef nonnull align 8 dereferenceable(8) %5, i64 noundef %8) #13
  %10 = call noundef nonnull align 8 dereferenceable(8) ptr @_ZNK3gmx12ArrayRefIterIKdEdeEv(ptr noundef nonnull align 8 dereferenceable(8) %5) #13
  ret ptr %10
}

; Function Attrs: mustprogress nounwind uwtable
define linkonce_odr noundef nonnull align 8 dereferenceable(8) ptr @_ZSt3minIdERKT_S2_S2_(ptr noundef nonnull align 8 dereferenceable(8) %0, ptr noundef nonnull align 8 dereferenceable(8) %1) #2 comdat {
  %3 = alloca ptr, align 8
  %4 = alloca ptr, align 8
  %5 = alloca ptr, align 8
  store ptr %0, ptr %4, align 8
  store ptr %1, ptr %5, align 8
  %6 = load ptr, ptr %5, align 8
  %7 = load double, ptr %6, align 8
  %8 = load ptr, ptr %4, align 8
  %9 = load double, ptr %8, align 8
  %10 = fcmp olt double %7, %9
  br i1 %10, label %11, label %13

11:                                               ; preds = %2
  %12 = load ptr, ptr %5, align 8
  store ptr %12, ptr %3, align 8
  br label %15

13:                                               ; preds = %2
  %14 = load ptr, ptr %4, align 8
  store ptr %14, ptr %3, align 8
  br label %15

15:                                               ; preds = %13, %11
  %16 = load ptr, ptr %3, align 8
  ret ptr %16
}

; Function Attrs: mustprogress nounwind uwtable
define internal noundef double @_ZN3gmx8internalL36quotientOfFunctionAndThirdDerivativeEdddddd(double noundef %0, double noundef %1, double noundef %2, double noundef %3, double noundef %4, double noundef %5) #2 {
  %7 = alloca double, align 8
  %8 = alloca double, align 8
  %9 = alloca double, align 8
  %10 = alloca double, align 8
  %11 = alloca double, align 8
  %12 = alloca double, align 8
  %13 = alloca double, align 8
  %14 = alloca double, align 8
  %15 = alloca double, align 8
  %16 = alloca double, align 8
  store double %0, ptr %7, align 8
  store double %1, ptr %8, align 8
  store double %2, ptr %9, align 8
  store double %3, ptr %10, align 8
  store double %4, ptr %11, align 8
  store double %5, ptr %12, align 8
  %17 = call noundef float @_ZSt4sqrtf(float noundef 0x3810000000000000)
  %18 = fpext float %17 to double
  store double %18, ptr %13, align 8
  %19 = load double, ptr %9, align 8
  %20 = call noundef double @_ZSt3absd(double noundef %19)
  store double %20, ptr %15, align 8
  %21 = call noundef nonnull align 8 dereferenceable(8) ptr @_ZSt3maxIdERKT_S2_S2_(ptr noundef nonnull align 8 dereferenceable(8) %15, ptr noundef nonnull align 8 dereferenceable(8) %13)
  %22 = load double, ptr %21, align 8
  store double %22, ptr %14, align 8
  %23 = load double, ptr %11, align 8
  %24 = load double, ptr %10, align 8
  %25 = call double @llvm.fmuladd.f64(double -2.000000e+00, double %24, double %23)
  %26 = load double, ptr %8, align 8
  %27 = call double @llvm.fmuladd.f64(double 2.000000e+00, double %26, double %25)
  %28 = load double, ptr %7, align 8
  %29 = fsub double %27, %28
  %30 = load double, ptr %12, align 8
  %31 = fmul double 2.000000e+00, %30
  %32 = load double, ptr %12, align 8
  %33 = fmul double %31, %32
  %34 = load double, ptr %12, align 8
  %35 = fmul double %33, %34
  %36 = fdiv double %29, %35
  %37 = call noundef double @_ZSt3absd(double noundef %36)
  store double %37, ptr %16, align 8
  %38 = call noundef nonnull align 8 dereferenceable(8) ptr @_ZSt3maxIdERKT_S2_S2_(ptr noundef nonnull align 8 dereferenceable(8) %16, ptr noundef nonnull align 8 dereferenceable(8) %13)
  %39 = load double, ptr %38, align 8
  store double %39, ptr %16, align 8
  %40 = load double, ptr %14, align 8
  %41 = load double, ptr %16, align 8
  %42 = fdiv double %40, %41
  ret double %42
}

; Function Attrs: mustprogress nounwind uwtable
define linkonce_odr noundef nonnull align 8 dereferenceable(8) ptr @_ZNK3gmx8ArrayRefIKdEixEm(ptr noundef nonnull align 8 dereferenceable(16) %0, i64 noundef %1) #2 comdat align 2 {
  %3 = alloca ptr, align 8
  %4 = alloca i64, align 8
  store ptr %0, ptr %3, align 8
  store i64 %1, ptr %4, align 8
  %5 = load ptr, ptr %3, align 8
  %6 = getelementptr inbounds %"class.gmx::ArrayRef", ptr %5, i32 0, i32 0
  %7 = load i64, ptr %4, align 8
  %8 = call noundef nonnull align 8 dereferenceable(8) ptr @_ZNK3gmx5boost14stl_interfaces2v118iterator_interfaceINS_12ArrayRefIterIKdEESt26random_access_iterator_tagS5_RS5_PS5_lvEixIS6_EEDTcmpLclsr3stdE7declvalIRT_EEfp_declsr3stdE7declvalISD_EEEl(ptr noundef nonnull align 1 dereferenceable(1) %6, i64 noundef %7) #13
  ret ptr %8
}

; Function Attrs: mustprogress nounwind uwtable
define noundef float @_ZN3gmx8internal48findSmallestQuotientOfFunctionAndThirdDerivativeENS_8ArrayRefIKdEEdRKSt4pairIffE(ptr %0, ptr %1, double noundef %2, ptr noundef nonnull align 4 dereferenceable(8) %3) #2 {
  %5 = alloca %"class.gmx::ArrayRef", align 8
  %6 = alloca double, align 8
  %7 = alloca ptr, align 8
  %8 = alloca i64, align 8
  %9 = alloca i64, align 8
  %10 = alloca double, align 8
  %11 = alloca i64, align 8
  %12 = alloca double, align 8
  %13 = getelementptr inbounds { ptr, ptr }, ptr %5, i32 0, i32 0
  store ptr %0, ptr %13, align 8
  %14 = getelementptr inbounds { ptr, ptr }, ptr %5, i32 0, i32 1
  store ptr %1, ptr %14, align 8
  store double %2, ptr %6, align 8
  store ptr %3, ptr %7, align 8
  %15 = load ptr, ptr %7, align 8
  %16 = getelementptr inbounds %"struct.std::pair.0", ptr %15, i32 0, i32 0
  %17 = load float, ptr %16, align 4
  %18 = fpext float %17 to double
  %19 = load double, ptr %6, align 8
  %20 = fdiv double %18, %19
  %21 = fptoui double %20 to i64
  store i64 %21, ptr %8, align 8
  %22 = load ptr, ptr %7, align 8
  %23 = getelementptr inbounds %"struct.std::pair.0", ptr %22, i32 0, i32 1
  %24 = load float, ptr %23, align 4
  %25 = fpext float %24 to double
  %26 = load double, ptr %6, align 8
  %27 = fdiv double %25, %26
  %28 = fptoui double %27 to i64
  store i64 %28, ptr %9, align 8
  store double 0x47EFFFFFE0000000, ptr %10, align 8
  %29 = load i64, ptr %8, align 8
  %30 = add i64 %29, 2
  store i64 %30, ptr %11, align 8
  br label %31

31:                                               ; preds = %60, %4
  %32 = load i64, ptr %11, align 8
  %33 = add i64 %32, 2
  %34 = load i64, ptr %9, align 8
  %35 = icmp ult i64 %33, %34
  br i1 %35, label %36, label %63

36:                                               ; preds = %31
  %37 = load i64, ptr %11, align 8
  %38 = sub i64 %37, 2
  %39 = call noundef nonnull align 8 dereferenceable(8) ptr @_ZNK3gmx8ArrayRefIKdEixEm(ptr noundef nonnull align 8 dereferenceable(16) %5, i64 noundef %38)
  %40 = load double, ptr %39, align 8
  %41 = load i64, ptr %11, align 8
  %42 = sub i64 %41, 1
  %43 = call noundef nonnull align 8 dereferenceable(8) ptr @_ZNK3gmx8ArrayRefIKdEixEm(ptr noundef nonnull align 8 dereferenceable(16) %5, i64 noundef %42)
  %44 = load double, ptr %43, align 8
  %45 = load i64, ptr %11, align 8
  %46 = call noundef nonnull align 8 dereferenceable(8) ptr @_ZNK3gmx8ArrayRefIKdEixEm(ptr noundef nonnull align 8 dereferenceable(16) %5, i64 noundef %45)
  %47 = load double, ptr %46, align 8
  %48 = load i64, ptr %11, align 8
  %49 = add i64 %48, 1
  %50 = call noundef nonnull align 8 dereferenceable(8) ptr @_ZNK3gmx8ArrayRefIKdEixEm(ptr noundef nonnull align 8 dereferenceable(16) %5, i64 noundef %49)
  %51 = load double, ptr %50, align 8
  %52 = load i64, ptr %11, align 8
  %53 = add i64 %52, 2
  %54 = call noundef nonnull align 8 dereferenceable(8) ptr @_ZNK3gmx8ArrayRefIKdEixEm(ptr noundef nonnull align 8 dereferenceable(16) %5, i64 noundef %53)
  %55 = load double, ptr %54, align 8
  %56 = load double, ptr %6, align 8
  %57 = call noundef double @_ZN3gmx8internalL36quotientOfFunctionAndThirdDerivativeEdddddd(double noundef %40, double noundef %44, double noundef %47, double noundef %51, double noundef %55, double noundef %56)
  store double %57, ptr %12, align 8
  %58 = call noundef nonnull align 8 dereferenceable(8) ptr @_ZSt3minIdERKT_S2_S2_(ptr noundef nonnull align 8 dereferenceable(8) %10, ptr noundef nonnull align 8 dereferenceable(8) %12)
  %59 = load double, ptr %58, align 8
  store double %59, ptr %10, align 8
  br label %60

60:                                               ; preds = %36
  %61 = load i64, ptr %11, align 8
  %62 = add i64 %61, 1
  store i64 %62, ptr %11, align 8
  br label %31, !llvm.loop !12

63:                                               ; preds = %31
  %64 = load double, ptr %10, align 8
  %65 = fptrunc double %64 to float
  ret float %65
}