; Function Attrs: mustprogress nofree norecurse nosync nounwind willreturn memory(argmem: read) uwtable
define noundef float @_ZN3gmx8internal48findSmallestQuotientOfFunctionAndThirdDerivativeENS_8ArrayRefIKdEEdRKSt4pairIffE(ptr nocapture readonly %0, ptr nocapture readnone %1, double noundef %2, ptr nocapture noundef nonnull readonly align 4 dereferenceable(8) %3) local_unnamed_addr #11 {
  %5 = load float, ptr %3, align 4
  %6 = fpext float %5 to double
  %7 = fdiv double %6, %2
  %8 = fptoui double %7 to i64
  %9 = getelementptr inbounds i8, ptr %3, i64 4
  %10 = load float, ptr %9, align 4
  %11 = fpext float %10 to double
  %12 = fdiv double %11, %2
  %13 = fptoui double %12 to i64
  %invariant.gep = getelementptr i8, ptr %0, i64 -16
  %invariant.gep20 = getelementptr i8, ptr %0, i64 -8
  %14 = add i64 %8, 4
  %15 = icmp ult i64 %14, %13
  br i1 %15, label %.lr.ph, label %._crit_edge

.lr.ph:                                           ; preds = %4
  %16 = add i64 %8, 2
  %17 = fmul double %2, 2.000000e+00
  %18 = fmul double %17, %2
  %19 = fmul double %18, %2
  %.phi.trans.insert = getelementptr inbounds double, ptr %0, i64 %16
  %.pre = load double, ptr %.phi.trans.insert, align 8
  br label %20

20:                                               ; preds = %.lr.ph, %20
  %21 = phi double [ %.pre, %.lr.ph ], [ %27, %20 ]
  %22 = phi i64 [ %14, %.lr.ph ], [ %42, %20 ]
  %.023 = phi i64 [ %16, %.lr.ph ], [ %25, %20 ]
  %.01922 = phi double [ 0x47EFFFFFE0000000, %.lr.ph ], [ %.sroa.speculated, %20 ]
  %gep = getelementptr double, ptr %invariant.gep, i64 %.023
  %23 = load double, ptr %gep, align 8
  %gep21 = getelementptr double, ptr %invariant.gep20, i64 %.023
  %24 = load double, ptr %gep21, align 8
  %25 = add i64 %.023, 1
  %26 = getelementptr inbounds double, ptr %0, i64 %25
  %27 = load double, ptr %26, align 8
  %28 = getelementptr inbounds double, ptr %0, i64 %22
  %29 = load double, ptr %28, align 8
  %30 = tail call double @llvm.fmuladd.f64(double %27, double -2.000000e+00, double %29)
  %31 = tail call double @llvm.fmuladd.f64(double %24, double 2.000000e+00, double %30)
  %32 = fsub double %31, %23
  %33 = fdiv double %32, %19
  %34 = insertelement <2 x double> poison, double %21, i64 0
  %35 = insertelement <2 x double> %34, double %33, i64 1
  %36 = tail call <2 x double> @llvm.fabs.v2f64(<2 x double> %35)
  %37 = fcmp olt <2 x double> %36, <double 0x3C00000000000000, double 0x3C00000000000000>
  %38 = select <2 x i1> %37, <2 x double> <double 0x3C00000000000000, double 0x3C00000000000000>, <2 x double> %36
  %shift = shufflevector <2 x double> %38, <2 x double> poison, <2 x i32> <i32 1, i32 poison>
  %39 = fdiv <2 x double> %38, %shift
  %40 = extractelement <2 x double> %39, i64 0
  %41 = fcmp olt double %40, %.01922
  %.sroa.speculated = select i1 %41, double %40, double %.01922
  %42 = add i64 %.023, 3
  %43 = icmp ult i64 %42, %13
  br i1 %43, label %20, label %._crit_edge.loopexit, !llvm.loop !12

._crit_edge.loopexit:                             ; preds = %20
  %44 = fptrunc double %.sroa.speculated to float
  br label %._crit_edge

._crit_edge:                                      ; preds = %._crit_edge.loopexit, %4
  %.019.lcssa = phi float [ 0x47EFFFFFE0000000, %4 ], [ %44, %._crit_edge.loopexit ]
  ret float %.019.lcssa
}